(i__main__
Dataset
p1
(dp2
S'monitor_info'
p3
(dp4
Vpassword
p5
VKraken02
p6
sVbssid
p7
VBlueMix
p8
ssS'clients'
p9
(lp10
(dp11
Vname
p12
V
sVip
p13
V
sVreport
p14
(lp15
(lp16
F1486769504.3799241
a(dp17
Vudp
p18
I4
sVhttp
p19
I0
sVtcp
p20
I0
sVhttps
p21
I1
sVrecv
p22
I2
sVsent
p23
I2
saa(lp24
F1486769509.463129
a(dp25
Vudp
p26
I7
sVhttp
p27
I0
sVtcp
p28
I25
sVhttps
p29
I14
sVrecv
p30
I16
sVsent
p31
I18
saa(lp32
F1486769514.7664981
a(dp33
Vudp
p34
I384
sVhttp
p35
I1
sVtcp
p36
I2247
sVhttps
p37
I925
sVrecv
p38
I1470
sVsent
p39
I1167
saa(lp40
F1486769587.8813009
a(dp41
Vudp
p42
I22
sVhttp
p43
I1
sVtcp
p44
I41
sVhttps
p45
I16
sVrecv
p46
I36
sVsent
p47
I27
saa(lp48
F1486769604.4505639
a(dp49
Vudp
p50
I13
sVhttp
p51
I1
sVtcp
p52
I21
sVhttps
p53
I15
sVrecv
p54
I17
sVsent
p55
I17
saasVmac
p56
Vb4:ae:2b:c9:41:30
p57
sVdebug
p58
I00
sVos
p59
V
sa(dp60
Vname
p61
V
sVip
p62
V
sVreport
p63
(lp64
(lp65
F1486769504.3799241
a(dp66
Vudp
p67
I3
sVhttp
p68
I0
sVtcp
p69
I0
sVhttps
p70
I0
sVrecv
p71
I3
sVsent
p72
I0
saasVmac
p73
Vff:ff:ff:ff:ff:ff
p74
sVdebug
p75
I00
sVos
p76
V
sa(dp77
Vname
p78
V
sVip
p79
V
sVreport
p80
(lp81
(lp82
F1486769504.3799241
a(dp83
Vudp
p84
I3390
sVhttp
p85
I1
sVtcp
p86
I1383
sVhttps
p87
I3010
sVrecv
p88
I1712
sVsent
p89
I3061
saa(lp90
F1486769531.4481511
a(dp91
Vudp
p92
I2398
sVhttp
p93
I1
sVtcp
p94
I217
sVhttps
p95
I1764
sVrecv
p96
I789
sVsent
p97
I1826
saa(lp98
F1486769536.4587121
a(dp99
Vudp
p100
I7374
sVhttp
p101
I1
sVtcp
p102
I438
sVhttps
p103
I5400
sVrecv
p104
I2281
sVsent
p105
I5531
saa(lp106
F1486769546.479656
a(dp107
Vudp
p108
I4873
sVhttp
p109
I1
sVtcp
p110
I36
sVhttps
p111
I3456
sVrecv
p112
I1447
sVsent
p113
I3462
saa(lp114
F1486769551.492862
a(dp115
Vudp
p116
I4560
sVhttp
p117
I1
sVtcp
p118
I451
sVhttps
p119
I3275
sVrecv
p120
I1489
sVsent
p121
I3523
saa(lp122
F1486769556.5044489
a(dp123
Vudp
p124
I3974
sVhttp
p125
I0
sVtcp
p126
I18
sVhttps
p127
I2828
sVrecv
p128
I1150
sVsent
p129
I2842
saa(lp130
F1486769561.5162189
a(dp131
Vudp
p132
I4036
sVhttp
p133
I1
sVtcp
p134
I16
sVhttps
p135
I2834
sVrecv
p136
I1212
sVsent
p137
I2841
saa(lp138
F1486769566.527832
a(dp139
Vudp
p140
I4889
sVhttp
p141
I0
sVtcp
p142
I257
sVhttps
p143
I3643
sVrecv
p144
I1496
sVsent
p145
I3650
saa(lp146
F1486769571.540894
a(dp147
Vudp
p148
I2783
sVhttp
p149
I1
sVtcp
p150
I439
sVhttps
p151
I2141
sVrecv
p152
I1033
sVsent
p153
I2190
saa(lp154
F1486769598.592767
a(dp155
Vudp
p156
I1012
sVhttp
p157
I1
sVtcp
p158
I68
sVhttps
p159
I711
sVrecv
p160
I347
sVsent
p161
I734
saa(lp162
F1486769615.5224719
a(dp163
Vudp
p164
I214
sVhttp
p165
I0
sVtcp
p166
I50
sVhttps
p167
I175
sVrecv
p168
I89
sVsent
p169
I175
saasVmac
p170
V60:e3:27:ac:58:f4
p171
sVdebug
p172
I00
sVos
p173
V
sa(dp174
Vname
p175
V
sVip
p176
V
sVreport
p177
(lp178
(lp179
F1486769509.463129
a(dp180
Vudp
p181
I0
sVhttp
p182
I0
sVtcp
p183
I18
sVhttps
p184
I4
sVrecv
p185
I4
sVsent
p186
I14
saa(lp187
F1486769520.0174351
a(dp188
Vudp
p189
I233
sVhttp
p190
I0
sVtcp
p191
I144
sVhttps
p192
I202
sVrecv
p193
I211
sVsent
p194
I166
saa(lp195
F1486769526.438731
a(dp196
Vudp
p197
I8316
sVhttp
p198
I0
sVtcp
p199
I378
sVhttps
p200
I6110
sVrecv
p201
I6114
sVsent
p202
I2580
saa(lp203
F1486769541.469445
a(dp204
Vudp
p205
I28357
sVhttp
p206
I0
sVtcp
p207
I340
sVhttps
p208
I20360
sVrecv
p209
I20368
sVsent
p210
I8329
saa(lp211
F1486769576.8580599
a(dp212
Vudp
p213
I186
sVhttp
p214
I0
sVtcp
p215
I19
sVhttps
p216
I133
sVrecv
p217
I133
sVsent
p218
I72
saa(lp219
F1486769581.8793659
a(dp220
Vudp
p221
I822
sVhttp
p222
I0
sVtcp
p223
I67
sVhttps
p224
I595
sVrecv
p225
I597
sVsent
p226
I292
saa(lp227
F1486769593.53547
a(dp228
Vudp
p229
I682
sVhttp
p230
I0
sVtcp
p231
I32
sVhttps
p232
I476
sVrecv
p233
I477
sVsent
p234
I237
saa(lp235
F1486769610.2263379
a(dp236
Vudp
p237
I522
sVhttp
p238
I0
sVtcp
p239
I40
sVhttps
p240
I387
sVrecv
p241
I387
sVsent
p242
I175
saasVmac
p243
V88:79:7e:46:2b:55
p244
sVdebug
p245
I00
sVos
p246
V
sa(dp247
Vname
p248
V
sVip
p249
V
sVreport
p250
(lp251
(lp252
F1486769509.463129
a(dp253
Vudp
p254
I27
sVhttp
p255
I0
sVtcp
p256
I0
sVhttps
p257
I0
sVrecv
p258
I27
sVsent
p259
I0
saasVmac
p260
V01:00:5e:7f:ff:fa
p261
sVdebug
p262
I00
sVos
p263
V
sa(dp264
Vname
p265
V
sVip
p266
V
sVreport
p267
(lp268
(lp269
F1486769514.7664981
a(dp270
Vudp
p271
I12
sVhttp
p272
I0
sVtcp
p273
I0
sVhttps
p274
I0
sVrecv
p275
I12
sVsent
p276
I0
saasVmac
p277
V01:00:5e:00:00:fb
p278
sVdebug
p279
I00
sVos
p280
V
sasS'mode'
p281
S'mon'
p282
sS'APs'
p283
(lp284
(dp285
Vmac
p286
V20:e5:2a:fa:61:5d
p287
sVchannel
p288
I11
sVbssid
p289
VGardens203
p290
sa(dp291
Vmac
p292
V60:e3:27:ac:58:f4
p293
sVchannel
p294
I11
sVbssid
p295
VBlueMix
p296
sa(dp297
Vmac
p298
V20:e5:2a:fa:8f:e8
p299
sVchannel
p300
I11
sVbssid
p301
VFA8FE8
p302
sa(dp303
Vmac
p304
V54:3d:37:29:29:08
p305
sVchannel
p306
I11
sVbssid
p307
VICON-MGMT
p308
sa(dp309
Vmac
p310
V54:3d:37:69:29:08
p311
sVchannel
p312
I11
sVbssid
p313
VICON
p314
sa(dp315
Vmac
p316
V54:3d:37:29:54:f8
p317
sVchannel
p318
I11
sVbssid
p319
VICON-MGMT
p320
sa(dp321
Vmac
p322
V54:3d:37:69:54:f8
p323
sVchannel
p324
I11
sVbssid
p325
VICON
p326
sa(dp327
Vmac
p328
V54:3d:37:68:6f:28
p329
sVchannel
p330
I11
sVbssid
p331
VICON
p332
sa(dp333
Vmac
p334
V54:3d:37:28:6f:28
p335
sVchannel
p336
I11
sVbssid
p337
VICON-MGMT
p338
sa(dp339
Vmac
p340
V10:0d:7f:e2:5b:1d
p341
sVchannel
p342
I11
sVbssid
p343
VThese guys got Wifi
p344
sa(dp345
Vmac
p346
Vd0:03:4b:d6:60:fa
p347
sVchannel
p348
I11
sVbssid
p349
VCadmin
p350
sa(dp351
Vmac
p352
V20:e5:2a:22:7f:b6
p353
sVchannel
p354
I11
sVbssid
p355
VSuper Cucas
p356
sasb.